target datalayout = "e-m:e-p270:32:32-p271:32:32-p272:64:64-i64:64-i128:128-f80:128-n8:16:32:64-S128"
target triple = "x86_64-pc-linux-gnu"

%struct.strbuf = type { i64, i64, ptr }
%struct.__va_list_tag = type { i32, i32, ptr, ptr }

@the_repository = external global ptr, align 8
@strbuf_slopbuf = external global [0 x i8], align 1
@.str.108 = private unnamed_addr constant [11 x i8] c"./strbuf.h\00", align 1
@.str.109 = private unnamed_addr constant [30 x i8] c"strbuf_setlen() beyond buffer\00", align 1

; Function Attrs: inlinehint nounwind uwtable
define internal void @strbuf_setlen(ptr noundef %0, i64 noundef %1) #7 {
  %3 = alloca ptr, align 8
  %4 = alloca i64, align 8
  store ptr %0, ptr %3, align 8, !tbaa !62
  store i64 %1, ptr %4, align 8, !tbaa !10
  %5 = load i64, ptr %4, align 8, !tbaa !10
  %6 = load ptr, ptr %3, align 8, !tbaa !62
  %7 = getelementptr inbounds nuw %struct.strbuf, ptr %6, i32 0, i32 0
  %8 = load i64, ptr %7, align 8, !tbaa !191
  %9 = icmp ne i64 %8, 0
  br i1 %9, label %10, label %15

10:                                               ; preds = %2
  %11 = load ptr, ptr %3, align 8, !tbaa !62
  %12 = getelementptr inbounds nuw %struct.strbuf, ptr %11, i32 0, i32 0
  %13 = load i64, ptr %12, align 8, !tbaa !191
  %14 = sub i64 %13, 1
  br label %16

15:                                               ; preds = %2
  br label %16

16:                                               ; preds = %15, %10
  %17 = phi i64 [ %14, %10 ], [ 0, %15 ]
  %18 = icmp ugt i64 %5, %17
  br i1 %18, label %19, label %20

19:                                               ; preds = %16
  call void (ptr, i32, ptr, ...) @BUG_fl(ptr noundef @.str.108, i32 noundef 167, ptr noundef @.str.109) #13
  unreachable

20:                                               ; preds = %16
  %21 = load i64, ptr %4, align 8, !tbaa !10
  %22 = load ptr, ptr %3, align 8, !tbaa !62
  %23 = getelementptr inbounds nuw %struct.strbuf, ptr %22, i32 0, i32 1
  store i64 %21, ptr %23, align 8, !tbaa !92
  %24 = load ptr, ptr %3, align 8, !tbaa !62
  %25 = getelementptr inbounds nuw %struct.strbuf, ptr %24, i32 0, i32 2
  %26 = load ptr, ptr %25, align 8, !tbaa !56
  %27 = icmp ne ptr %26, @strbuf_slopbuf
  br i1 %27, label %28, label %34

28:                                               ; preds = %20
  %29 = load ptr, ptr %3, align 8, !tbaa !62
  %30 = getelementptr inbounds nuw %struct.strbuf, ptr %29, i32 0, i32 2
  %31 = load ptr, ptr %30, align 8, !tbaa !56
  %32 = load i64, ptr %4, align 8, !tbaa !10
  %33 = getelementptr inbounds nuw i8, ptr %31, i64 %32
  store i8 0, ptr %33, align 1, !tbaa !58
  br label %35

34:                                               ; preds = %20
  br label %35

35:                                               ; preds = %34, %28
  ret void
}

; Function Attrs: inlinehint nounwind uwtable
define internal ptr @git_path_buf(ptr noundef %0, ptr noundef %1, ...) #7 {
  %3 = alloca ptr, align 8
  %4 = alloca ptr, align 8
  %5 = alloca [1 x %struct.__va_list_tag], align 16
  store ptr %0, ptr %3, align 8, !tbaa !62
  store ptr %1, ptr %4, align 8, !tbaa !12
  call void @llvm.lifetime.start.p0(i64 24, ptr %5) #14
  %6 = load ptr, ptr %3, align 8, !tbaa !62
  call void @strbuf_setlen(ptr noundef %6, i64 noundef 0)
  %7 = getelementptr inbounds [1 x %struct.__va_list_tag], ptr %5, i64 0, i64 0
  call void @llvm.va_start.p0(ptr %7)
  %8 = load ptr, ptr @the_repository, align 8, !tbaa !19
  %9 = load ptr, ptr %3, align 8, !tbaa !62
  %10 = load ptr, ptr %4, align 8, !tbaa !12
  %11 = getelementptr inbounds [1 x %struct.__va_list_tag], ptr %5, i64 0, i64 0
  call void @repo_git_pathv(ptr noundef %8, ptr noundef null, ptr noundef %9, ptr noundef %10, ptr noundef %11)
  %12 = getelementptr inbounds [1 x %struct.__va_list_tag], ptr %5, i64 0, i64 0
  call void @llvm.va_end.p0(ptr %12)
  %13 = load ptr, ptr %3, align 8, !tbaa !62
  %14 = getelementptr inbounds nuw %struct.strbuf, ptr %13, i32 0, i32 2
  %15 = load ptr, ptr %14, align 8, !tbaa !56
  call void @llvm.lifetime.end.p0(i64 24, ptr %5) #14
  ret ptr %15
}